target datalayout = "e-m:e-p270:32:32-p271:32:32-p272:64:64-i64:64-i128:128-f80:128-n8:16:32:64-S128"
target triple = "x86_64-pc-linux-gnu"

@ext_nids = internal global ptr @ext_nid_list, align 8

; Function Attrs: nounwind uwtable
define hidden i32 @X509_REQ_extension_nid(i32 noundef %0) #0 {
  %2 = alloca i32, align 4
  %3 = alloca i32, align 4
  %4 = alloca i32, align 4
  %5 = alloca i32, align 4
  %6 = alloca i32, align 4
  store i32 %0, ptr %3, align 4, !tbaa !36
  call void @llvm.lifetime.start.p0(i64 4, ptr %4) #4
  call void @llvm.lifetime.start.p0(i64 4, ptr %5) #4
  store i32 0, ptr %4, align 4, !tbaa !36
  br label %7

7:                                                ; preds = %23, %1
  %8 = load ptr, ptr @ext_nids, align 8, !tbaa !41
  %9 = load i32, ptr %4, align 4, !tbaa !36
  %10 = sext i32 %9 to i64
  %11 = getelementptr inbounds i32, ptr %8, i64 %10
  %12 = load i32, ptr %11, align 4, !tbaa !36
  store i32 %12, ptr %5, align 4, !tbaa !36
  %13 = load i32, ptr %5, align 4, !tbaa !36
  %14 = icmp eq i32 %13, 0
  br i1 %14, label %15, label %16

15:                                               ; preds = %7
  store i32 0, ptr %2, align 4
  store i32 1, ptr %6, align 4
  br label %26

16:                                               ; preds = %7
  %17 = load i32, ptr %3, align 4, !tbaa !36
  %18 = load i32, ptr %5, align 4, !tbaa !36
  %19 = icmp eq i32 %17, %18
  br i1 %19, label %20, label %21

20:                                               ; preds = %16
  store i32 1, ptr %2, align 4
  store i32 1, ptr %6, align 4
  br label %26

21:                                               ; preds = %16
  br label %22

22:                                               ; preds = %21
  br label %23

23:                                               ; preds = %22
  %24 = load i32, ptr %4, align 4, !tbaa !36
  %25 = add nsw i32 %24, 1
  store i32 %25, ptr %4, align 4, !tbaa !36
  br label %7

26:                                               ; preds = %20, %15
  call void @llvm.lifetime.end.p0(i64 4, ptr %5) #4
  call void @llvm.lifetime.end.p0(i64 4, ptr %4) #4
  %27 = load i32, ptr %2, align 4
  ret i32 %27
}